target datalayout = "e-m:e-p270:32:32-p271:32:32-p272:64:64-i64:64-i128:128-f80:128-n8:16:32:64-S128"
target triple = "x86_64-pc-linux-gnu"

%class.symbol = type { ptr }
%"class.opt::optsmt" = type { ptr, ptr, ptr, %class.vector, %class.vector, %class.ref_vector, %class.ref_vector.1, %class.svector, %class.symbol, %class.ref, %class.ref, %class.svector.7, %class.ref_vector_core.9 }
%class.vector = type { ptr }
%class.ref_vector = type { %class.ref_vector_core }
%class.ref_vector_core = type { %class.ref_manager_wrapper, %class.ptr_vector }
%class.ref_manager_wrapper = type { ptr }
%class.ptr_vector = type { %class.vector.0 }
%class.vector.0 = type { ptr }
%class.ref_vector.1 = type { %class.ref_vector_core.2 }
%class.ref_vector_core.2 = type { %class.ref_manager_wrapper.3, %class.ptr_vector.4 }
%class.ref_manager_wrapper.3 = type { ptr }
%class.ptr_vector.4 = type { %class.vector.5 }
%class.vector.5 = type { ptr }
%class.svector = type { %class.vector.6 }
%class.vector.6 = type { ptr }
%class.ref = type { ptr }
%class.svector.7 = type { %class.vector.8 }
%class.vector.8 = type { ptr }
%class.ref_vector_core.9 = type { %class.ptr_vector.10 }
%class.ptr_vector.10 = type { %class.vector.11 }
%class.vector.11 = type { ptr }
%"class.solver::scoped_push" = type <{ ptr, i8, [7 x i8] }>

@.str.17 = private unnamed_addr constant [6 x i8] c"symba\00", align 1

; Function Attrs: mustprogress nounwind uwtable
define linkonce_odr hidden void @_ZN6solver11scoped_pushD2Ev(ptr noundef nonnull align 8 dereferenceable(9) %0) unnamed_addr #4 comdat align 2 personality ptr @__gxx_personality_v0 {
  %2 = alloca ptr, align 8
  store ptr %0, ptr %2, align 8, !tbaa !156
  %3 = load ptr, ptr %2, align 8
  %4 = getelementptr inbounds nuw %"class.solver::scoped_push", ptr %3, i32 0, i32 1
  %5 = load i8, ptr %4, align 8, !tbaa !160, !range !12, !noundef !13
  %6 = trunc i8 %5 to i1
  br i1 %6, label %14, label %7

7:                                                ; preds = %1
  %8 = getelementptr inbounds nuw %"class.solver::scoped_push", ptr %3, i32 0, i32 0
  %9 = load ptr, ptr %8, align 8, !tbaa !166
  %10 = load ptr, ptr %9, align 8, !tbaa !68
  %11 = getelementptr inbounds ptr, ptr %10, i64 25
  %12 = load ptr, ptr %11, align 8
  invoke void %12(ptr noundef nonnull align 8 dereferenceable(96) %9, i32 noundef 1)
          to label %13 unwind label %15

13:                                               ; preds = %7
  br label %14

14:                                               ; preds = %13, %1
  ret void

15:                                               ; preds = %7
  %16 = landingpad { ptr, i32 }
          catch ptr null
  %17 = extractvalue { ptr, i32 } %16, 0
  call void @__clang_call_terminate(ptr %17) #20
  unreachable
}

; Function Attrs: mustprogress nounwind uwtable
define linkonce_odr hidden noundef zeroext i1 @_ZeqRK6symbolS1_(ptr noundef nonnull align 8 dereferenceable(8) %0, ptr noundef nonnull align 8 dereferenceable(8) %1) #4 comdat {
  %3 = alloca ptr, align 8
  %4 = alloca ptr, align 8
  store ptr %0, ptr %3, align 8, !tbaa !224
  store ptr %1, ptr %4, align 8, !tbaa !224
  %5 = load ptr, ptr %3, align 8, !tbaa !224
  %6 = getelementptr inbounds nuw %class.symbol, ptr %5, i32 0, i32 0
  %7 = load ptr, ptr %6, align 8, !tbaa !225
  %8 = load ptr, ptr %4, align 8, !tbaa !224
  %9 = getelementptr inbounds nuw %class.symbol, ptr %8, i32 0, i32 0
  %10 = load ptr, ptr %9, align 8, !tbaa !225
  %11 = icmp eq ptr %7, %10
  ret i1 %11
}

; Function Attrs: mustprogress uwtable
define linkonce_odr hidden void @_ZN6solver11scoped_pushC2ERS_(ptr noundef nonnull align 8 dereferenceable(9) %0, ptr noundef nonnull align 8 dereferenceable(96) %1) unnamed_addr #6 comdat align 2 {
  %3 = alloca ptr, align 8
  %4 = alloca ptr, align 8
  store ptr %0, ptr %3, align 8, !tbaa !156
  store ptr %1, ptr %4, align 8, !tbaa !158
  %5 = load ptr, ptr %3, align 8
  %6 = getelementptr inbounds nuw %"class.solver::scoped_push", ptr %5, i32 0, i32 0
  %7 = load ptr, ptr %4, align 8, !tbaa !158
  store ptr %7, ptr %6, align 8, !tbaa !158
  %8 = getelementptr inbounds nuw %"class.solver::scoped_push", ptr %5, i32 0, i32 1
  store i8 0, ptr %8, align 8, !tbaa !160
  %9 = load ptr, ptr %4, align 8, !tbaa !158
  %10 = load ptr, ptr %9, align 8, !tbaa !68
  %11 = getelementptr inbounds ptr, ptr %10, i64 24
  %12 = load ptr, ptr %11, align 8
  call void %12(ptr noundef nonnull align 8 dereferenceable(96) %9)
  ret void
}

; Function Attrs: mustprogress uwtable
define hidden noundef i32 @_ZN3opt6optsmt3lexEjb(ptr noundef nonnull align 8 dereferenceable(120) %0, i32 noundef %1, i1 noundef zeroext %2) #6 align 2 personality ptr @__gxx_personality_v0 {
  %4 = alloca i32, align 4
  %5 = alloca ptr, align 8
  %6 = alloca i32, align 4
  %7 = alloca i8, align 1
  %8 = alloca %"class.solver::scoped_push", align 8
  %9 = alloca %class.symbol, align 8
  %10 = alloca ptr, align 8
  %11 = alloca i32, align 4
  %12 = alloca i32, align 4
  store ptr %0, ptr %5, align 8, !tbaa !28
  store i32 %1, ptr %6, align 4, !tbaa !8
  %13 = zext i1 %2 to i8
  store i8 %13, ptr %7, align 1, !tbaa !10
  %14 = load ptr, ptr %5, align 8
  %15 = getelementptr inbounds nuw %"class.opt::optsmt", ptr %14, i32 0, i32 1
  %16 = load ptr, ptr %15, align 8, !tbaa !188
  %17 = getelementptr inbounds nuw %"class.opt::optsmt", ptr %14, i32 0, i32 10
  %18 = load ptr, ptr %16, align 8, !tbaa !68
  %19 = getelementptr inbounds ptr, ptr %18, i64 34
  %20 = load ptr, ptr %19, align 8
  call void %20(ptr noundef nonnull align 8 dereferenceable(808) %16, ptr noundef nonnull align 8 dereferenceable(8) %17)
  call void @llvm.lifetime.start.p0(i64 16, ptr %8) #3
  %21 = getelementptr inbounds nuw %"class.opt::optsmt", ptr %14, i32 0, i32 2
  %22 = load ptr, ptr %21, align 8, !tbaa !34
  call void @_ZN6solver11scoped_pushC2ERS_(ptr noundef nonnull align 8 dereferenceable(9) %8, ptr noundef nonnull align 8 dereferenceable(96) %22)
  %23 = load i8, ptr %7, align 1, !tbaa !10, !range !12, !noundef !13
  %24 = trunc i8 %23 to i1
  call void @llvm.lifetime.start.p0(i64 8, ptr %9) #3
  br i1 %24, label %25, label %30

25:                                               ; preds = %3
  %26 = getelementptr inbounds nuw %"class.opt::optsmt", ptr %14, i32 0, i32 8
  invoke void @_ZN6symbolC1EPKc(ptr noundef nonnull align 8 dereferenceable(8) %9, ptr noundef @.str.17)
          to label %27 unwind label %35

27:                                               ; preds = %25
  %28 = invoke noundef zeroext i1 @_ZeqRK6symbolS1_(ptr noundef nonnull align 8 dereferenceable(8) %26, ptr noundef nonnull align 8 dereferenceable(8) %9)
          to label %29 unwind label %35

29:                                               ; preds = %27
  br label %30

30:                                               ; preds = %29, %3
  %31 = phi i1 [ false, %3 ], [ %28, %29 ]
  call void @llvm.lifetime.end.p0(i64 8, ptr %9) #3
  br i1 %31, label %32, label %43

32:                                               ; preds = %30
  %33 = invoke noundef i32 @_ZN3opt6optsmt9symba_optEv(ptr noundef nonnull align 8 dereferenceable(120) %14)
          to label %34 unwind label %39

34:                                               ; preds = %32
  store i32 %33, ptr %4, align 4
  store i32 1, ptr %12, align 4
  br label %49

35:                                               ; preds = %27, %25
  %36 = landingpad { ptr, i32 }
          cleanup
  %37 = extractvalue { ptr, i32 } %36, 0
  store ptr %37, ptr %10, align 8
  %38 = extractvalue { ptr, i32 } %36, 1
  store i32 %38, ptr %11, align 4
  call void @llvm.lifetime.end.p0(i64 8, ptr %9) #3
  br label %51

39:                                               ; preds = %43, %32
  %40 = landingpad { ptr, i32 }
          cleanup
  %41 = extractvalue { ptr, i32 } %40, 0
  store ptr %41, ptr %10, align 8
  %42 = extractvalue { ptr, i32 } %40, 1
  store i32 %42, ptr %11, align 4
  br label %51

43:                                               ; preds = %30
  %44 = load i32, ptr %6, align 4, !tbaa !8
  %45 = load i8, ptr %7, align 1, !tbaa !10, !range !12, !noundef !13
  %46 = trunc i8 %45 to i1
  %47 = invoke noundef i32 @_ZN3opt6optsmt13geometric_lexEjb(ptr noundef nonnull align 8 dereferenceable(120) %14, i32 noundef %44, i1 noundef zeroext %46)
          to label %48 unwind label %39

48:                                               ; preds = %43
  store i32 %47, ptr %4, align 4
  store i32 1, ptr %12, align 4
  br label %49

49:                                               ; preds = %48, %34
  call void @_ZN6solver11scoped_pushD2Ev(ptr noundef nonnull align 8 dereferenceable(9) %8) #3
  call void @llvm.lifetime.end.p0(i64 16, ptr %8) #3
  %50 = load i32, ptr %4, align 4
  ret i32 %50

51:                                               ; preds = %39, %35
  call void @_ZN6solver11scoped_pushD2Ev(ptr noundef nonnull align 8 dereferenceable(9) %8) #3
  call void @llvm.lifetime.end.p0(i64 16, ptr %8) #3
  br label %52

52:                                               ; preds = %51
  %53 = load ptr, ptr %10, align 8
  %54 = load i32, ptr %11, align 4
  %55 = insertvalue { ptr, i32 } poison, ptr %53, 0
  %56 = insertvalue { ptr, i32 } %55, i32 %54, 1
  resume { ptr, i32 } %56
}