; Function Attrs: mustprogress uwtable
define hidden noundef range(i32 -1, 2) i32 @_ZN3opt6optsmt3lexEjb(ptr noundef nonnull align 8 dereferenceable(120) %0, i32 noundef %1, i1 noundef zeroext %2) local_unnamed_addr #4 align 2 personality ptr @__gxx_personality_v0 {
  %4 = alloca %class.symbol, align 8
  %5 = getelementptr inbounds nuw i8, ptr %0, i64 8
  %6 = load ptr, ptr %5, align 8, !tbaa !169
  %7 = getelementptr inbounds nuw i8, ptr %0, i64 96
  %8 = load ptr, ptr %6, align 8, !tbaa !61
  %9 = getelementptr inbounds nuw i8, ptr %8, i64 272
  %10 = load ptr, ptr %9, align 8
  tail call void %10(ptr noundef nonnull align 8 dereferenceable(808) %6, ptr noundef nonnull align 8 dereferenceable(8) %7)
  %11 = getelementptr inbounds nuw i8, ptr %0, i64 16
  %12 = load ptr, ptr %11, align 8, !tbaa !16
  %13 = load ptr, ptr %12, align 8, !tbaa !61
  %14 = getelementptr inbounds nuw i8, ptr %13, i64 192
  %15 = load ptr, ptr %14, align 8
  tail call void %15(ptr noundef nonnull align 8 dereferenceable(96) %12)
  call void @llvm.lifetime.start.p0(i64 8, ptr nonnull %4) #23
  br i1 %2, label %16, label %.critedge

16:                                               ; preds = %3
  invoke void @_ZN6symbolC1EPKc(ptr noundef nonnull align 8 dereferenceable(8) %4, ptr noundef nonnull @.str.17)
          to label %17 unwind label %24

17:                                               ; preds = %16
  %18 = getelementptr inbounds nuw i8, ptr %0, i64 80
  %19 = load ptr, ptr %18, align 8, !tbaa !190
  %20 = load ptr, ptr %4, align 8, !tbaa !190
  %21 = icmp eq ptr %19, %20
  call void @llvm.lifetime.end.p0(i64 8, ptr nonnull %4) #23
  br i1 %21, label %22, label %28

22:                                               ; preds = %17
  %23 = invoke noundef i32 @_ZN3opt6optsmt9symba_optEv(ptr noundef nonnull align 8 dereferenceable(120) %0)
          to label %30 unwind label %26

24:                                               ; preds = %16
  %25 = landingpad { ptr, i32 }
          cleanup
  call void @llvm.lifetime.end.p0(i64 8, ptr nonnull %4) #23
  br label %37

26:                                               ; preds = %28, %22
  %27 = landingpad { ptr, i32 }
          cleanup
  br label %37

.critedge:                                        ; preds = %3
  call void @llvm.lifetime.end.p0(i64 8, ptr nonnull %4) #23
  br label %28

28:                                               ; preds = %.critedge, %17
  %29 = invoke noundef i32 @_ZN3opt6optsmt13geometric_lexEjb(ptr noundef nonnull align 8 dereferenceable(120) %0, i32 noundef %1, i1 noundef zeroext %2)
          to label %30 unwind label %26

30:                                               ; preds = %22, %28
  %.07 = phi i32 [ %23, %22 ], [ %29, %28 ]
  %31 = load ptr, ptr %12, align 8, !tbaa !61
  %32 = getelementptr inbounds nuw i8, ptr %31, i64 200
  %33 = load ptr, ptr %32, align 8
  invoke void %33(ptr noundef nonnull align 8 dereferenceable(96) %12, i32 noundef 1)
          to label %_ZN6solver11scoped_pushD2Ev.exit unwind label %34

34:                                               ; preds = %30
  %35 = landingpad { ptr, i32 }
          catch ptr null
  %36 = extractvalue { ptr, i32 } %35, 0
  call void @__clang_call_terminate(ptr %36) #24
  unreachable

_ZN6solver11scoped_pushD2Ev.exit:                 ; preds = %30
  ret i32 %.07

37:                                               ; preds = %24, %26
  %.pn = phi { ptr, i32 } [ %27, %26 ], [ %25, %24 ]
  %38 = load ptr, ptr %12, align 8, !tbaa !61
  %39 = getelementptr inbounds nuw i8, ptr %38, i64 200
  %40 = load ptr, ptr %39, align 8
  invoke void %40(ptr noundef nonnull align 8 dereferenceable(96) %12, i32 noundef 1)
          to label %_ZN6solver11scoped_pushD2Ev.exit9 unwind label %41

41:                                               ; preds = %37
  %42 = landingpad { ptr, i32 }
          catch ptr null
  %43 = extractvalue { ptr, i32 } %42, 0
  call void @__clang_call_terminate(ptr %43) #24
  unreachable

_ZN6solver11scoped_pushD2Ev.exit9:                ; preds = %37
  resume { ptr, i32 } %.pn
}